target datalayout = "e-m:e-p270:32:32-p271:32:32-p272:64:64-i64:64-i128:128-f80:128-n8:16:32:64-S128"
target triple = "x86_64-pc-linux-gnu"

%struct.except_id_t = type { i64, i64 }
%struct._fvalue_t = type { ptr, %union.anon.1 }
%union.anon.1 = type { %struct._protocol_value_t }
%struct._protocol_value_t = type { ptr, i32, ptr, i8 }
%struct.except_stacknode = type { ptr, i32, %union.anon.2 }
%union.anon.2 = type { ptr }
%struct.except_catch = type { ptr, i64, %struct.except_t, [1 x %struct.__jmp_buf_tag] }
%struct.except_t = type { %struct.except_id_t, ptr, ptr }
%struct.__jmp_buf_tag = type { [8 x i64], i32, %struct.__sigset_t }
%struct.__sigset_t = type { [16 x i64] }

@cmp_contains.catch_spec = internal constant [1 x %struct.except_id_t] [%struct.except_id_t { i64 1, i64 0 }], align 16

; Function Attrs: null_pointer_is_valid sspstrong uwtable
define internal i32 @cmp_contains(ptr noundef %0, ptr noundef %1, ptr noundef %2) #0 {
  %4 = alloca ptr, align 8
  %5 = alloca ptr, align 8
  %6 = alloca ptr, align 8
  %7 = alloca i8, align 1
  %8 = alloca ptr, align 8
  %9 = alloca i32, align 4
  %10 = alloca %struct.except_stacknode, align 8
  %11 = alloca %struct.except_catch, align 8
  store ptr %0, ptr %4, align 8
  store ptr %1, ptr %5, align 8
  store ptr %2, ptr %6, align 8
  call void @llvm.lifetime.start.p0(i64 1, ptr %7) #9
  store volatile i8 0, ptr %7, align 1
  call void @llvm.lifetime.start.p0(i64 8, ptr %8) #9
  call void @llvm.lifetime.start.p0(i64 4, ptr %9) #9
  store volatile i32 0, ptr %9, align 4
  call void @llvm.lifetime.start.p0(i64 24, ptr %10) #9
  call void @llvm.lifetime.start.p0(i64 248, ptr %11) #9
  call void @except_setup_try(ptr noundef %10, ptr noundef %11, ptr noundef @cmp_contains.catch_spec, i64 noundef 1)
  %12 = getelementptr inbounds nuw %struct.except_catch, ptr %11, i32 0, i32 3
  %13 = getelementptr inbounds [1 x %struct.__jmp_buf_tag], ptr %12, i64 0, i64 0
  %14 = call i32 @_setjmp(ptr noundef %13) #12
  %15 = icmp ne i32 %14, 0
  br i1 %15, label %16, label %18

16:                                               ; preds = %3
  %17 = getelementptr inbounds nuw %struct.except_catch, ptr %11, i32 0, i32 2
  store volatile ptr %17, ptr %8, align 8
  br label %19

18:                                               ; preds = %3
  store volatile ptr null, ptr %8, align 8
  br label %19

19:                                               ; preds = %18, %16
  %20 = load volatile i32, ptr %9, align 4
  %21 = and i32 %20, 1
  %22 = icmp ne i32 %21, 0
  br i1 %22, label %23, label %26

23:                                               ; preds = %19
  %24 = load volatile i32, ptr %9, align 4
  %25 = or i32 %24, 2
  store volatile i32 %25, ptr %9, align 4
  br label %26

26:                                               ; preds = %23, %19
  %27 = load volatile i32, ptr %9, align 4
  %28 = and i32 %27, -2
  store volatile i32 %28, ptr %9, align 4
  %29 = load volatile i32, ptr %9, align 4
  %30 = icmp eq i32 %29, 0
  br i1 %30, label %31, label %80

31:                                               ; preds = %26
  %32 = load volatile ptr, ptr %8, align 8
  %33 = icmp eq ptr %32, null
  br i1 %33, label %34, label %80

34:                                               ; preds = %31
  %35 = load ptr, ptr %4, align 8
  %36 = getelementptr inbounds nuw %struct._fvalue_t, ptr %35, i32 0, i32 1
  %37 = getelementptr inbounds nuw %struct._protocol_value_t, ptr %36, i32 0, i32 0
  %38 = load ptr, ptr %37, align 8
  %39 = icmp ne ptr %38, null
  br i1 %39, label %40, label %59

40:                                               ; preds = %34
  %41 = load ptr, ptr %5, align 8
  %42 = getelementptr inbounds nuw %struct._fvalue_t, ptr %41, i32 0, i32 1
  %43 = getelementptr inbounds nuw %struct._protocol_value_t, ptr %42, i32 0, i32 0
  %44 = load ptr, ptr %43, align 8
  %45 = icmp ne ptr %44, null
  br i1 %45, label %46, label %59

46:                                               ; preds = %40
  %47 = load ptr, ptr %4, align 8
  %48 = getelementptr inbounds nuw %struct._fvalue_t, ptr %47, i32 0, i32 1
  %49 = getelementptr inbounds nuw %struct._protocol_value_t, ptr %48, i32 0, i32 0
  %50 = load ptr, ptr %49, align 8
  %51 = load ptr, ptr %5, align 8
  %52 = getelementptr inbounds nuw %struct._fvalue_t, ptr %51, i32 0, i32 1
  %53 = getelementptr inbounds nuw %struct._protocol_value_t, ptr %52, i32 0, i32 0
  %54 = load ptr, ptr %53, align 8
  %55 = call i32 @tvb_find_tvb(ptr noundef %50, ptr noundef %54, i32 noundef 0)
  %56 = icmp sgt i32 %55, -1
  br i1 %56, label %57, label %58

57:                                               ; preds = %46
  store volatile i8 1, ptr %7, align 1
  br label %58

58:                                               ; preds = %57, %46
  br label %79

59:                                               ; preds = %40, %34
  %60 = load ptr, ptr %5, align 8
  %61 = getelementptr inbounds nuw %struct._fvalue_t, ptr %60, i32 0, i32 1
  %62 = getelementptr inbounds nuw %struct._protocol_value_t, ptr %61, i32 0, i32 2
  %63 = load ptr, ptr %62, align 8
  %64 = call i64 @strlen(ptr noundef %63) #10
  %65 = icmp ne i64 %64, 0
  br i1 %65, label %66, label %78

66:                                               ; preds = %59
  %67 = load ptr, ptr %4, align 8
  %68 = getelementptr inbounds nuw %struct._fvalue_t, ptr %67, i32 0, i32 1
  %69 = getelementptr inbounds nuw %struct._protocol_value_t, ptr %68, i32 0, i32 2
  %70 = load ptr, ptr %69, align 8
  %71 = load ptr, ptr %5, align 8
  %72 = getelementptr inbounds nuw %struct._fvalue_t, ptr %71, i32 0, i32 1
  %73 = getelementptr inbounds nuw %struct._protocol_value_t, ptr %72, i32 0, i32 2
  %74 = load ptr, ptr %73, align 8
  %75 = call ptr @strstr(ptr noundef %70, ptr noundef %74) #10
  %76 = icmp ne ptr %75, null
  br i1 %76, label %77, label %78

77:                                               ; preds = %66
  store volatile i8 1, ptr %7, align 1
  br label %78

78:                                               ; preds = %77, %66, %59
  br label %79

79:                                               ; preds = %78, %58
  br label %80

80:                                               ; preds = %79, %31, %26
  %81 = load volatile i32, ptr %9, align 4
  %82 = icmp eq i32 %81, 0
  br i1 %82, label %83, label %91

83:                                               ; preds = %80
  %84 = load volatile ptr, ptr %8, align 8
  %85 = icmp ne ptr %84, null
  br i1 %85, label %86, label %91

86:                                               ; preds = %83
  %87 = load volatile i32, ptr %9, align 4
  %88 = or i32 %87, 1
  store volatile i32 %88, ptr %9, align 4
  %89 = icmp ne i32 %88, 0
  br i1 %89, label %90, label %91

90:                                               ; preds = %86
  br label %91

91:                                               ; preds = %90, %86, %83, %80
  %92 = load volatile i32, ptr %9, align 4
  %93 = and i32 %92, 1
  %94 = icmp ne i32 %93, 0
  br i1 %94, label %100, label %95

95:                                               ; preds = %91
  %96 = load volatile ptr, ptr %8, align 8
  %97 = icmp ne ptr %96, null
  br i1 %97, label %98, label %100

98:                                               ; preds = %95
  %99 = load volatile ptr, ptr %8, align 8
  call void @except_rethrow(ptr noundef %99) #13
  unreachable

100:                                              ; preds = %95, %91
  %101 = getelementptr inbounds nuw %struct.except_catch, ptr %11, i32 0, i32 2
  %102 = getelementptr inbounds nuw %struct.except_t, ptr %101, i32 0, i32 2
  %103 = load volatile ptr, ptr %102, align 8
  call void @except_free(ptr noundef %103)
  %104 = call ptr @except_pop()
  call void @llvm.lifetime.end.p0(i64 248, ptr %11) #9
  call void @llvm.lifetime.end.p0(i64 24, ptr %10) #9
  call void @llvm.lifetime.end.p0(i64 4, ptr %9) #9
  call void @llvm.lifetime.end.p0(i64 8, ptr %8) #9
  %105 = load volatile i8, ptr %7, align 1, !range !6, !noundef !7
  %106 = trunc i8 %105 to i1
  %107 = load ptr, ptr %6, align 8
  %108 = zext i1 %106 to i8
  store i8 %108, ptr %107, align 1
  call void @llvm.lifetime.end.p0(i64 1, ptr %7) #9
  ret i32 0
}