; Function Attrs: null_pointer_is_valid sspstrong uwtable
define internal noundef i32 @cmp_contains(ptr noundef readonly captures(none) %0, ptr noundef readonly captures(none) %1, ptr noundef writeonly captures(none) %2) #0 {
  %4 = alloca i8, align 1
  %5 = alloca ptr, align 8
  %6 = alloca i32, align 4
  %7 = alloca %struct.except_stacknode, align 8
  %8 = alloca %struct.except_catch, align 8
  call void @llvm.lifetime.start.p0(i64 1, ptr nonnull %4)
  store volatile i8 0, ptr %4, align 1
  call void @llvm.lifetime.start.p0(i64 8, ptr nonnull %5)
  call void @llvm.lifetime.start.p0(i64 4, ptr nonnull %6)
  store volatile i32 0, ptr %6, align 4
  call void @llvm.lifetime.start.p0(i64 24, ptr nonnull %7) #12
  call void @llvm.lifetime.start.p0(i64 248, ptr nonnull %8) #12
  call void @except_setup_try(ptr noundef nonnull %7, ptr noundef nonnull %8, ptr noundef nonnull @cmp_contains.catch_spec, i64 noundef 1)
  %9 = getelementptr inbounds nuw i8, ptr %8, i64 48
  %10 = call i32 @_setjmp(ptr noundef nonnull %9) #13
  %.not = icmp eq i32 %10, 0
  %11 = getelementptr inbounds nuw i8, ptr %8, i64 16
  %.sink = select i1 %.not, ptr null, ptr %11
  store volatile ptr %.sink, ptr %5, align 8
  %.0..0..0..0. = load volatile i32, ptr %6, align 4
  %12 = and i32 %.0..0..0..0., 1
  %.not21 = icmp eq i32 %12, 0
  br i1 %.not21, label %15, label %13

13:                                               ; preds = %3
  %.0..0..0..0.1 = load volatile i32, ptr %6, align 4
  %14 = or i32 %.0..0..0..0.1, 2
  store volatile i32 %14, ptr %6, align 4
  br label %15

15:                                               ; preds = %13, %3
  %.0..0..0..0.2 = load volatile i32, ptr %6, align 4
  %16 = and i32 %.0..0..0..0.2, -2
  store volatile i32 %16, ptr %6, align 4
  %.0..0..0..0.3 = load volatile i32, ptr %6, align 4
  %17 = icmp eq i32 %.0..0..0..0.3, 0
  br i1 %17, label %18, label %36

18:                                               ; preds = %15
  %.0..0..0..0.7 = load volatile ptr, ptr %5, align 8
  %19 = icmp eq ptr %.0..0..0..0.7, null
  br i1 %19, label %20, label %36

20:                                               ; preds = %18
  %21 = getelementptr inbounds nuw i8, ptr %0, i64 8
  %22 = load ptr, ptr %21, align 8
  %.not22 = icmp eq ptr %22, null
  br i1 %.not22, label %29, label %23

23:                                               ; preds = %20
  %24 = getelementptr inbounds nuw i8, ptr %1, i64 8
  %25 = load ptr, ptr %24, align 8
  %.not23 = icmp eq ptr %25, null
  br i1 %.not23, label %29, label %26

26:                                               ; preds = %23
  %27 = call i32 @tvb_find_tvb(ptr noundef nonnull %22, ptr noundef nonnull %25, i32 noundef 0)
  %28 = icmp sgt i32 %27, -1
  br i1 %28, label %.sink.split, label %36

29:                                               ; preds = %23, %20
  %30 = getelementptr inbounds nuw i8, ptr %1, i64 24
  %31 = load ptr, ptr %30, align 8
  %char0 = load i8, ptr %31, align 1
  %.not24 = icmp eq i8 %char0, 0
  br i1 %.not24, label %36, label %32

32:                                               ; preds = %29
  %33 = getelementptr inbounds nuw i8, ptr %0, i64 24
  %34 = load ptr, ptr %33, align 8
  %35 = call ptr @strstr(ptr noundef %34, ptr noundef %31) #10
  %.not25 = icmp eq ptr %35, null
  br i1 %.not25, label %36, label %.sink.split

.sink.split:                                      ; preds = %32, %26
  store volatile i8 1, ptr %4, align 1
  br label %36

36:                                               ; preds = %.sink.split, %26, %32, %29, %18, %15
  %.0..0..0..0.4 = load volatile i32, ptr %6, align 4
  %37 = icmp eq i32 %.0..0..0..0.4, 0
  br i1 %37, label %38, label %41

38:                                               ; preds = %36
  %.0..0..0..0.8 = load volatile ptr, ptr %5, align 8
  %.not26 = icmp eq ptr %.0..0..0..0.8, null
  br i1 %.not26, label %41, label %39

39:                                               ; preds = %38
  %.0..0..0..0.5 = load volatile i32, ptr %6, align 4
  %40 = or i32 %.0..0..0..0.5, 1
  store volatile i32 %40, ptr %6, align 4
  br label %41

41:                                               ; preds = %39, %38, %36
  %.0..0..0..0.6 = load volatile i32, ptr %6, align 4
  %42 = and i32 %.0..0..0..0.6, 1
  %.not27 = icmp eq i32 %42, 0
  br i1 %.not27, label %43, label %45

43:                                               ; preds = %41
  %.0..0..0..0.9 = load volatile ptr, ptr %5, align 8
  %.not28 = icmp eq ptr %.0..0..0..0.9, null
  br i1 %.not28, label %45, label %44

44:                                               ; preds = %43
  %.0..0..0..0.10 = load volatile ptr, ptr %5, align 8
  call void @except_rethrow(ptr noundef %.0..0..0..0.10) #14
  unreachable

45:                                               ; preds = %43, %41
  %46 = getelementptr inbounds nuw i8, ptr %8, i64 40
  %47 = load volatile ptr, ptr %46, align 8
  call void @except_free(ptr noundef %47)
  %48 = call ptr @except_pop()
  call void @llvm.lifetime.end.p0(i64 248, ptr nonnull %8) #12
  call void @llvm.lifetime.end.p0(i64 24, ptr nonnull %7) #12
  call void @llvm.lifetime.end.p0(i64 4, ptr nonnull %6)
  call void @llvm.lifetime.end.p0(i64 8, ptr nonnull %5)
  %.0..0..0..0.11 = load volatile i8, ptr %4, align 1, !range !6, !noundef !7
  store i8 %.0..0..0..0.11, ptr %2, align 1
  call void @llvm.lifetime.end.p0(i64 1, ptr nonnull %4)
  ret i32 0
}